(lp0
(lp1
I3
a(dp2
S'position'
p3
cnumpy.core.multiarray
_reconstruct
p4
(cnumpy
ndarray
p5
(I0
tp6
S'b'
p7
tp8
Rp9
(I1
(I3
tp10
cnumpy
dtype
p11
(S'f8'
p12
I0
I1
tp13
Rp14
(I3
S'<'
p15
NNNI-1
I-1
I0
tp16
bI00
S'`\xcfr\x89T\xc3\x80?B\xc8<\\[\xb6\xdb?\x871c\xe85\xf7\xd0?'
p17
tp18
bsS'orientation'
p19
g4
(g5
(I0
tp20
g7
tp21
Rp22
(I1
(I4
tp23
g14
I00
S'E\x88)\xdaE)\xde\xbf\x02\x9d\xf1l\xaa9\xe2\xbf*{U\xf5I+\xe5\xbf\x1f\xf3:\xaeA$\xc0\xbf'
p24
tp25
bsa(dp26
S'vive_position'
p27
(lp28
F-0.03988371
aF0.7113376
aF2.793834
asS'vive_orientation'
p29
(lp30
F0.4896963
aF-0.07960596
aF0.6440161
aF-0.5823262
asaa(lp31
I4
a(dp32
g3
g4
(g5
(I0
tp33
g7
tp34
Rp35
(I1
(I3
tp36
g14
I00
S'\x16[C\x8e\xa4\xb8\xbb?\xff\xbe!\xeb\xc0:{\xbf\xd1)\xf61!2\xe5?'
p37
tp38
bsg19
g4
(g5
(I0
tp39
g7
tp40
Rp41
(I1
(I4
tp42
g14
I00
S"\xed\x18\x94\xa5\xe0}\xc0?\x83\x91w\xeeI\x16\xe0?\xc0]g'\t^\x8e?A\x81\x1c\xdbiY\xeb\xbf"
p43
tp44
bsa(dp45
g27
(lp46
F0.05738302
aF1.022328
aF2.251889
asg29
(lp47
F0.8878566
aF0.3455848
aF-0.009008172
aF0.3036463
asaa(lp48
I6
a(dp49
g3
g4
(g5
(I0
tp50
g7
tp51
Rp52
(I1
(I3
tp53
g14
I00
S'\xde\xde\x90\x0e\x8c:\xd6\xbf\x7f\x1f)rA\xed\xc8?N\xa7\x0cdUF\xd8?'
p54
tp55
bsg19
g4
(g5
(I0
tp56
g7
tp57
Rp58
(I1
(I4
tp59
g14
I00
S'\x8c\xf6\x12\xa1\xa4t\xd0\xbf\x94\xc1\xb4\xfe\xd5\x04\xe1?\xe0\xb7\r9\xff\xa2\xe7\xbf\x0c \x8a\xab\x08\xc8\xd4?'
p60
tp61
bsa(dp62
g27
(lp63
F0.06748874
aF0.7595294
aF3.064677
asg29
(lp64
F0.1106953
aF-0.2356586
aF0.7750824
aF0.5757249
asaa(lp65
I2
a(dp66
g3
g4
(g5
(I0
tp67
g7
tp68
Rp69
(I1
(I3
tp70
g14
I00
S'\x8b\xf10s3\xf7\xdf\xbf2\xdbg~\xed0\xc2\xbf\x86\xefA\x10qS\xdd?'
p71
tp72
bsg19
g4
(g5
(I0
tp73
g7
tp74
Rp75
(I1
(I4
tp76
g14
I00
S'\x1aI\x8b\xea\x891\xe3\xbf]\x08\xcc\x98vP\xd1\xbf\xaf\xc3W!\x14\xf3\xe6\xbfT\xaa\xdcm\x95c\xcd?'
p77
tp78
bsa(dp79
g27
(lp80
F0.5502561
aF1.086475
aF3.034961
asg29
(lp81
F0.5163712
aF0.03390587
aF0.8539618
aF-0.05441175
asaa(lp82
I7
a(dp83
g3
g4
(g5
(I0
tp84
g7
tp85
Rp86
(I1
(I3
tp87
g14
I00
S"x\x86\xba'\x7f&\xb6\xbf\tw\xd4\xb7\xe5\xc5\xd0\xbf\r]\xaaax\xc0\xe5?"
p88
tp89
bsg19
g4
(g5
(I0
tp90
g7
tp91
Rp92
(I1
(I4
tp93
g14
I00
S'\xe8\x98\xa4RT\xa7\xd2?\x8d\x8802\\\x04\xe8?\xa4C\xc1fvU\xd1?L\x0b\x15\xe3\\\xe2\xe0\xbf'
p94
tp95
bsa(dp96
g27
(lp97
F0.4977102
aF1.311149
aF2.488166
asg29
(lp98
F0.9019302
aF0.09519051
aF0.3668846
aF-0.2070185
asaa(lp99
I1
a(dp100
g3
g4
(g5
(I0
tp101
g7
tp102
Rp103
(I1
(I3
tp104
g14
I00
S'p{\xe1\x1e\xe0\xbd\xd9\xbfy\n\xfbA\xf2\xea\x90?\xdcb\x1d\xa2\xae(\xcc?'
p105
tp106
bsg19
g4
(g5
(I0
tp107
g7
tp108
Rp109
(I1
(I4
tp110
g14
I00
S'L4\xce\xa1\xdf\x0cW?4\xeb\xf79\x8f(\xba?\xfe&(\xfd\xcf\x8c\xe9\xbf\x1c\xcc\x0c\xbe\xa3\xfc\xe2?'
p111
tp112
bsa(dp113
g27
(lp114
F0.3414771
aF0.5288971
aF2.900806
asg29
(lp115
F0.5784122
aF-0.3878682
aF0.5487461
aF0.4624669
asaa(lp116
I0
a(dp117
g3
g4
(g5
(I0
tp118
g7
tp119
Rp120
(I1
(I3
tp121
g14
I00
S"\xf9\x05/\x88(\x9e\xd3\xbf@'I,\xd1\xfc\xd3\xbf\x9c\x1b\xb4\xffD\x88\xc9?"
p122
tp123
bsg19
g4
(g5
(I0
tp124
g7
tp125
Rp126
(I1
(I4
tp127
g14
I00
S'+l\xd4\rs\xfb\xc9?\x06\xe6+\xa2JH\xe5\xbfh\x94Kb\x8e\x85\xe6\xbf\xe2\x19T\xcb\x95\x9b\xc2?'
p128
tp129
bsa(dp130
g27
(lp131
F0.7001935
aF0.8054273
aF2.564389
asg29
(lp132
F0.7832698
aF-0.4999205
aF0.3169458
aF-0.1900358
asaa(lp133
I5
a(dp134
g3
g4
(g5
(I0
tp135
g7
tp136
Rp137
(I1
(I3
tp138
g14
I00
S'\x16\x9a\x9e\x0c\x03\xd8\xcd\xbf A\x03\xe0\xcd\xfdR\xbf\xe6J\xc1\x19-\xac\xd4?'
p139
tp140
bsg19
g4
(g5
(I0
tp141
g7
tp142
Rp143
(I1
(I4
tp144
g14
I00
S'\xa1\xe7w\x04\xdfE\xb2?\xae\xfbY\xfc\x84\x12\xe3?\xb2:\x11\xb5S\xe6\xe1?\xc7\xcb\xa2\x02\xf9J\xe2\xbf'
p145
tp146
bsa(dp147
g27
(lp148
F0.3562276
aF0.8655919
aF2.586809
asg29
(lp149
F0.9434865
aF-0.1476764
aF0.2809796
aF-0.09526625
asaa(lp150
I6
ag49
a(dp151
g27
(lp152
F0.1036627
aF0.6718826
aF3.063573
asg29
(lp153
F0.1759855
aF-0.274246
aF0.7771254
aF0.5384187
asaa(lp154
I1
ag100
a(dp155
g27
(lp156
F0.3111761
aF0.5336652
aF2.913344
asg29
(lp157
F0.5561513
aF-0.3916939
aF0.5179036
aF0.5186981
asaa(lp158
I3
ag2
a(dp159
g27
(lp160
F0.003661473
aF0.6701649
aF2.793977
asg29
(lp161
F0.5111265
aF-0.09801711
aF0.5984352
aF-0.6091125
asaa(lp162
I0
ag117
a(dp163
g27
(lp164
F0.6772858
aF0.8357371
aF2.528608
asg29
(lp165
F0.7507065
aF-0.5815291
aF0.2038509
aF-0.2381357
asaa(lp166
I4
ag32
a(dp167
g27
(lp168
F0.03674179
aF1.125611
aF2.307607
asg29
(lp169
F0.9337863
aF0.3337805
aF0.07872346
aF0.1021591
asaa(lp170
I2
ag66
a(dp171
g27
(lp172
F0.5925125
aF0.952016
aF3.051499
asg29
(lp173
F0.5303129
aF-0.08160049
aF0.8423634
aF-0.05033584
asaa(lp174
I5
ag134
a(dp175
g27
(lp176
F0.3600791
aF0.8665204
aF2.584516
asg29
(lp177
F0.9454517
aF-0.1406751
aF0.2677413
aF-0.1210226
asaa(lp178
I7
ag83
a(dp179
g27
(lp180
F0.5112756
aF1.286517
aF2.516944
asg29
(lp181
F0.9115967
aF0.064045
aF0.3396473
aF-0.2225529
asaa(lp182
I1
ag100
a(dp183
g27
(lp184
F0.3405134
aF0.5098953
aF2.885043
asg29
(lp185
F0.5880381
aF-0.4049608
aF0.5303173
aF0.4571452
asaa(lp186
I6
ag49
a(dp187
g27
(lp188
F0.1384616
aF0.6679958
aF3.074142
asg29
(lp189
F0.2067703
aF-0.2328374
aF0.757113
aF0.5742935
asaa(lp190
I2
ag66
a(dp191
g27
(lp192
F0.5882801
aF0.9109624
aF3.068025
asg29
(lp193
F0.5114294
aF-0.09559682
aF0.853991
aF0.0009105345
asaa(lp194
I4
ag32
a(dp195
g27
(lp196
F0.02268478
aF1.189168
aF2.441262
asg29
(lp197
F0.9167655
aF0.363619
aF0.1489756
aF-0.07161595
asaa(lp198
I0
ag117
a(dp199
g27
(lp200
F0.6965728
aF0.7314991
aF2.524155
asg29
(lp201
F0.6633461
aF-0.669745
aF0.2186961
aF-0.2521622
asaa(lp202
I3
ag2
a(dp203
g27
(lp204
F0.04331815
aF0.6284345
aF2.800372
asg29
(lp205
F0.5046812
aF-0.0366538
aF0.4752997
aF-0.7197527
asaa(lp206
I7
ag83
a(dp207
g27
(lp208
F0.5851933
aF1.226355
aF2.643315
asg29
(lp209
F0.8678003
aF-0.02445596
aF0.4120637
aF-0.2766378
asaa(lp210
I5
ag134
a(dp211
g27
(lp212
F0.3550111
aF0.8671578
aF2.562391
asg29
(lp213
F0.9579581
aF-0.1457772
aF0.1686141
aF-0.1806514
asaa(lp214
I1
ag100
a(dp215
g27
(lp216
F0.3186848
aF0.4509498
aF2.815856
asg29
(lp217
F0.6265501
aF-0.4762188
aF0.4351978
aF0.4373257
asaa(lp218
I3
ag2
a(dp219
g27
(lp220
F0.07191314
aF0.6052185
aF2.798148
asg29
(lp221
F0.5105692
aF-0.0886388
aF0.4739288
aF-0.7119369
asaa(lp222
I0
ag117
a(dp223
g27
(lp224
F0.683533
aF0.724695
aF2.522806
asg29
(lp225
F0.6721117
aF-0.6663021
aF0.2103124
aF-0.2451049
asaa(lp226
I6
ag49
a(dp227
g27
(lp228
F0.1868152
aF0.5751729
aF3.053035
asg29
(lp229
F0.2667947
aF-0.2839642
aF0.7906473
aF0.4722944
asaa(lp230
I2
ag66
a(dp231
g27
(lp232
F0.5947925
aF0.7562287
aF3.071988
asg29
(lp233
F0.4987509
aF-0.2000315
aF0.8418604
aF0.05006428
asaa(lp234
I5
ag134
a(dp235
g27
(lp236
F0.3696462
aF0.8580933
aF2.581293
asg29
(lp237
F0.9450614
aF-0.1658616
aF0.1971229
aF-0.2012257
asaa(lp238
I4
ag32
a(dp239
g27
(lp240
F0.01765106
aF1.179694
aF2.473977
asg29
(lp241
F0.9135614
aF0.3598956
aF0.1661672
aF-0.09093628
asaa(lp242
I7
ag83
a(dp243
g27
(lp244
F0.5995422
aF1.202807
aF2.646616
asg29
(lp245
F0.8644589
aF-0.05590096
aF0.4130271
aF-0.2810603
asaa(lp246
I4
ag32
a(dp247
g27
(lp248
F0.001140296
aF1.204666
aF2.542198
asg29
(lp249
F0.8940048
aF0.3652412
aF0.1693991
aF-0.1966179
asaa(lp250
I3
ag2
a(dp251
g27
(lp252
F0.08500665
aF0.5977873
aF2.80161
asg29
(lp253
F0.5080788
aF-0.03311767
aF0.4188173
aF-0.7518986
asaa(lp254
I5
ag134
a(dp255
g27
(lp256
F0.353892
aF0.8597285
aF2.561872
asg29
(lp257
F0.9544808
aF-0.1567633
aF0.1153779
aF-0.2260091
asaa(lp258
I1
ag100
a(dp259
g27
(lp260
F0.4704133
aF0.5776947
aF2.585588
asg29
(lp261
F0.8249044
aF-0.4666062
aF0.30699
aF0.08699924
asaa(lp262
I0
ag117
a(dp263
g27
(lp264
F0.7045014
aF0.6392154
aF2.587332
asg29
(lp265
F0.6461412
aF-0.642974
aF0.3480738
aF-0.2189314
asaa(lp266
I6
ag49
a(dp267
g27
(lp268
F0.233882
aF0.510954
aF3.017176
asg29
(lp269
F0.3413269
aF-0.295399
aF0.7401206
aF0.4984547
asaa(lp270
I2
ag66
a(dp271
g27
(lp272
F0.5872321
aF0.6530144
aF3.059205
asg29
(lp273
F0.486876
aF-0.2639927
aF0.8250716
aF0.1118786
asaa(lp274
I7
ag83
a(dp275
g27
(lp276
F0.6671207
aF1.095069
aF2.745533
asg29
(lp277
F0.7951313
aF-0.1436236
aF0.5209864
aF-0.275158
asaa(lp278
I7
ag83
a(dp279
g27
(lp280
F0.6662502
aF1.094383
aF2.738576
asg29
(lp281
F0.801192
aF-0.1450589
aF0.5124639
aF-0.2728193
asaa(lp282
I1
ag100
a(dp283
g27
(lp284
F0.2877334
aF0.3899604
aF2.793116
asg29
(lp285
F0.6157956
aF-0.5117918
aF0.4094796
aF0.4372547
asaa(lp286
I4
ag32
a(dp287
g27
(lp288
F0.02025237
aF1.189253
aF2.5518
asg29
(lp289
F0.8868666
aF0.3778281
aF0.2015491
aF-0.1734701
asaa(lp290
I0
ag117
a(dp291
g27
(lp292
F0.7000171
aF0.7017806
aF2.526861
asg29
(lp293
F0.6536375
aF-0.6741483
aF0.219599
aF-0.2646859
asaa(lp294
I2
ag66
a(dp295
g27
(lp296
F0.613437
aF0.6795979
aF3.045249
asg29
(lp297
F0.4946467
aF-0.2761494
aF0.8237141
aF0.0236956
asaa(lp298
I3
ag2
a(dp299
g27
(lp300
F0.1134238
aF0.5839734
aF2.793821
asg29
(lp301
F0.4953394
aF-0.110524
aF0.4195397
aF-0.7526022
asaa(lp302
I5
ag134
a(dp303
g27
(lp304
F0.3434778
aF0.8381451
aF2.543946
asg29
(lp305
F0.9657179
aF-0.1621196
aF0.07680674
aF-0.1876362
asaa(lp306
I6
ag49
a(dp307
g27
(lp308
F0.2277792
aF0.4975108
aF2.990494
asg29
(lp309
F0.3591051
aF-0.3458517
aF0.7068862
aF0.5017394
asaa(lp310
I5
ag134
a(dp311
g27
(lp312
F0.3773055
aF0.8411813
aF2.550797
asg29
(lp313
F0.9476849
aF-0.1934127
aF0.1426863
aF-0.2100617
asaa(lp314
I2
ag66
a(dp315
g27
(lp316
F0.5990331
aF0.6469695
aF3.042265
asg29
(lp317
F0.5002529
aF-0.2794665
aF0.8165662
aF0.06975178
asaa(lp318
I6
ag49
a(dp319
g27
(lp320
F0.2346772
aF0.5093181
aF3.01881
asg29
(lp321
F0.3406892
aF-0.2913655
aF0.7456627
aF0.4929751
asaa(lp322
I4
ag32
a(dp323
g27
(lp324
F0.0189663
aF1.199334
aF2.557392
asg29
(lp325
F0.8944643
aF0.3438206
aF0.2016257
aF-0.2026535
asaa(lp326
I7
ag83
a(dp327
g27
(lp328
F0.6496878
aF1.121472
aF2.705777
asg29
(lp329
F0.8325995
aF-0.1373881
aF0.4431374
aF-0.3025429
asaa(lp330
I1
ag100
a(dp331
g27
(lp332
F0.2986248
aF0.3930865
aF2.793116
asg29
(lp333
F0.6156822
aF-0.5138867
aF0.4260137
aF0.4187701
asaa(lp334
I3
ag2
a(dp335
g27
(lp336
F0.1107108
aF0.5801256
aF2.792809
asg29
(lp337
F0.5095295
aF-0.117376
aF0.4136801
aF-0.7452996
asaa(lp338
I0
ag117
a(dp339
g27
(lp340
F0.6949541
aF0.6447639
aF2.516985
asg29
(lp341
F0.6095256
aF-0.7151879
aF0.2504452
aF-0.2329426
asaa(lp342
I3
ag2
a(dp343
g27
(lp344
F0.09803294
aF0.5934343
aF2.791536
asg29
(lp345
F0.5216073
aF-0.08833619
aF0.3871057
aF-0.7551636
asaa(lp346
I4
ag32
a(dp347
g27
(lp348
F0.0006401559
aF1.160182
aF2.540814
asg29
(lp349
F0.8968847
aF0.388407
aF0.1592245
aF-0.1392328
asaa(lp350
I6
ag49
a(dp351
g27
(lp352
F0.2172181
aF0.4970879
aF3.000443
asg29
(lp353
F0.3559631
aF-0.3352364
aF0.7134403
aF0.5019063
asaa(lp354
I5
ag134
a(dp355
g27
(lp356
F0.3762772
aF0.8335013
aF2.555073
asg29
(lp357
F0.9508051
aF-0.1791315
aF0.164044
aF-0.1922797
asaa(lp358
I2
ag66
a(dp359
g27
(lp360
F0.5982358
aF0.6463032
aF3.041129
asg29
(lp361
F0.5064654
aF-0.2732967
aF0.8144446
aF0.07404137
asaa(lp362
I7
ag83
a(dp363
g27
(lp364
F0.660163
aF1.1047
aF2.744307
asg29
(lp365
F0.7958786
aF-0.1458401
aF0.5057127
aF-0.2992706
asaa(lp366
I0
ag117
a(dp367
g27
(lp368
F0.6996832
aF0.6115187
aF2.504053
asg29
(lp369
F0.6063704
aF-0.7029691
aF0.2921179
aF-0.2298193
asaa(lp370
I1
ag100
a(dp371
g27
(lp372
F0.3033155
aF0.3953673
aF2.779221
asg29
(lp373
F0.6065714
aF-0.5390705
aF0.4274145
aF0.3984864
asaa(lp374
I7
ag83
a(dp375
g27
(lp376
F0.6510008
aF1.108267
aF2.720538
asg29
(lp377
F0.8226012
aF-0.1080984
aF0.4925254
aF-0.2627949
asaa(lp378
I2
ag66
a(dp379
g27
(lp380
F0.5934075
aF0.659664
aF3.055653
asg29
(lp381
F0.4989641
aF-0.2603194
aF0.8254028
aF0.04448745
asaa(lp382
I4
ag32
a(dp383
g27
(lp384
F0.01665026
aF1.184346
aF2.561483
asg29
(lp385
F0.896395
aF0.3559189
aF0.1817058
aF-0.1917841
asaa(lp386
I1
ag100
a(dp387
g27
(lp388
F0.2977203
aF0.3987416
aF2.77462
asg29
(lp389
F0.6352253
aF-0.5192507
aF0.3981069
aF0.4103398
asaa(lp390
I5
ag134
a(dp391
g27
(lp392
F0.3732823
aF0.8523722
aF2.559299
asg29
(lp393
F0.9431727
aF-0.1841543
aF0.13069
aF-0.2437884
asaa(lp394
I3
ag2
a(dp395
g27
(lp396
F0.1009039
aF0.597614
aF2.801117
asg29
(lp397
F0.5072517
aF-0.05387068
aF0.3952839
aF-0.763901
asaa(lp398
I6
ag49
a(dp399
g27
(lp400
F0.2193575
aF0.485566
aF2.991131
asg29
(lp401
F0.3617328
aF-0.344211
aF0.7088998
aF0.498126
asaa(lp402
I0
ag117
a(dp403
g27
(lp404
F0.7019104
aF0.6066956
aF2.505511
asg29
(lp405
F0.5989982
aF-0.7111775
aF0.309655
aF-0.1988513
asaa(lp406
I1
ag100
a(dp407
g27
(lp408
F0.2842911
aF0.382746
aF2.774385
asg29
(lp409
F0.6019096
aF-0.5534198
aF0.4153151
aF0.3986791
asaa(lp410
I0
ag117
a(dp411
g27
(lp412
F0.674019
aF0.5638528
aF2.511448
asg29
(lp413
F0.6264099
aF-0.6871351
aF0.3303563
aF-0.1622372
asaa(lp414
I5
ag134
a(dp415
g27
(lp416
F0.3706261
aF0.8557256
aF2.561733
asg29
(lp417
F0.9336757
aF-0.210313
aF0.1155866
aF-0.2658159
asaa(lp418
I3
ag2
a(dp419
g27
(lp420
F0.1141662
aF0.5910365
aF2.785777
asg29
(lp421
F0.5157357
aF-0.09457121
aF0.360944
aF-0.7712281
asaa(lp422
I2
ag66
a(dp423
g27
(lp424
F0.5976415
aF0.6442937
aF3.045898
asg29
(lp425
F0.4986845
aF-0.2788183
aF0.8187728
aF0.05644247
asaa(lp426
I6
ag49
a(dp427
g27
(lp428
F0.2389057
aF0.4968837
aF3.009857
asg29
(lp429
F0.3591196
aF-0.2941781
aF0.733015
aF0.4971736
asaa(lp430
I4
ag32
a(dp431
g27
(lp432
F0.01757051
aF1.191591
aF2.561377
asg29
(lp433
F0.8914037
aF0.3539777
aF0.1961751
aF-0.2039972
asaa(lp434
I7
ag83
a(dp435
g27
(lp436
F0.6567262
aF1.105806
aF2.719264
asg29
(lp437
F0.8193362
aF-0.1506303
aF0.4536284
aF-0.316576
asaa.