(lp0
(lp1
(lp2
I3
acnumpy.core.multiarray
_reconstruct
p3
(cnumpy
ndarray
p4
(I0
tp5
S'b'
p6
tp7
Rp8
(I1
(I7
tp9
cnumpy
dtype
p10
(S'f8'
p11
I0
I1
tp12
Rp13
(I3
S'<'
p14
NNNI-1
I-1
I0
tp15
bI00
S'\x00X\x8f\x9d\x00|q\xbf\x06M\xedU\x8e\x9b\xfa\xbf\xb2j{\x19\xea\xdc\xf8?\xdf\xf4\xa67\xe7\x1c\xd7\xbf\x18\x1f\xed\xf1\x91\xb3\xf8\xbf\xb3\x12\xaa\xfe\xda\xa4\xed\xbf\x9aP\x94EY\xa0k?'
p16
tp17
ba(dp18
S'position'
p19
g3
(g4
(I0
tp20
g6
tp21
Rp22
(I1
(I3
tp23
g10
(S'f8'
p24
I0
I1
tp25
Rp26
(I3
S'<'
p27
NNNI-1
I-1
I0
tp28
bI00
S'\xe5\xe3\x10\x1b\xb6\xa7\xdf\xbf\xfaa\x900\xd1\xabi\xbf#\xb5\xad\xf0\xb9\xd0\xa7?'
p29
tp30
bsS'orientation'
p31
g3
(g4
(I0
tp32
g6
tp33
Rp34
(I1
(I4
tp35
g26
I00
S'\xd3\x08"?O\xef\xb8\xbfnw\xda\x86\xcc~h?\x0ef\x89\xeb\xb7\xd8\xef\xbf2Z\xf7\xb1\xb4H\x81?'
p36
tp37
bsaag18
accopy_reg
_reconstructor
p38
(cgeometry_msgs.msg._PoseStamped
PoseStamped
p39
c__builtin__
object
p40
Ntp41
Rp42
(lp43
g38
(cstd_msgs.msg._Header
Header
p44
g40
Ntp45
Rp46
(lp47
I6484
ag38
(cgenpy.rostime
Time
p48
g40
Ntp49
Rp50
(lp51
I1528949358
aI893429040
abaS'base_tracker_link'
p52
abag38
(cgeometry_msgs.msg._Pose
Pose
p53
g40
Ntp54
Rp55
(lp56
g38
(cgeometry_msgs.msg._Point
Point
p57
g40
Ntp58
Rp59
(lp60
F-3.624541
aF0.9178855
aF1.634392
abag38
(cgeometry_msgs.msg._Quaternion
Quaternion
p61
g40
Ntp62
Rp63
(lp64
F0.7245622
aF0.3193543
aF0.5219857
aF0.317102
abababaa(lp65
g2
a(dp66
g19
g3
(g4
(I0
tp67
g6
tp68
Rp69
(I1
(I3
tp70
g26
I00
S'5X\x1b\x19a}\xd1\xbf}\xa3z\x1d9\xdb\xd1?TC\x10\xfd\x91\x19\xe4?'
p71
tp72
bsg31
g3
(g4
(I0
tp73
g6
tp74
Rp75
(I1
(I4
tp76
g26
I00
S'<!Vu\x91\xc9\xdf\xbfL\x8aB\xf2\x86\x17\xd9?U\xcc\x120\xae\xed\xe6\xbfBE\x04F\x86\xca\xd2\xbf'
p77
tp78
bsag38
(g39
g40
Ntp79
Rp80
(lp81
g38
(g44
g40
Ntp82
Rp83
(lp84
I6688
ag38
(g48
g40
Ntp85
Rp86
(lp87
I1528949361
aI903460025
abaS'base_tracker_link'
p88
abag38
(g53
g40
Ntp89
Rp90
(lp91
g38
(g57
g40
Ntp92
Rp93
(lp94
F-3.473233
aF0.4777834
aF2.055633
abag38
(g61
g40
Ntp95
Rp96
(lp97
F0.8003062
aF-0.2175172
aF0.5388991
aF-0.1475955
abababaa(lp98
g2
a(dp99
g19
g3
(g4
(I0
tp100
g6
tp101
Rp102
(I1
(I3
tp103
g26
I00
S'\x96\xf4\x9a\x89\xa4\xdc\xcf\xbf\x04\xb4\xaey\xc2\xf0\xd2?\x9at\xbe\xfa~\xc3\xb8\xbf'
p104
tp105
bsg31
g3
(g4
(I0
tp106
g6
tp107
Rp108
(I1
(I4
tp109
g26
I00
S'!\x8c_\xe3\xee-\xa0\xbf"Zqk\xb6\x99\xce?\xe5\xbf\xa5\x86\x05\xb9\xe8?\xd2<,\x0bo\xcb\xe2?'
p110
tp111
bsag38
(g39
g40
Ntp112
Rp113
(lp114
g38
(g44
g40
Ntp115
Rp116
(lp117
I6891
ag38
(g48
g40
Ntp118
Rp119
(lp120
I1528949364
aI893359899
abaS'base_tracker_link'
p121
abag38
(g53
g40
Ntp122
Rp123
(lp124
g38
(g57
g40
Ntp125
Rp126
(lp127
F-3.638211
aF1.19845
aF2.429204
abag38
(g61
g40
Ntp128
Rp129
(lp130
F0.6806712
aF0.655586
aF0.1500851
aF-0.2904627
abababaa.